target datalayout = "e-m:e-p270:32:32-p271:32:32-p272:64:64-i64:64-i128:128-f80:128-n8:16:32:64-S128"
target triple = "x86_64-pc-linux-gnu"

%struct.expert_field = type { i32, i32 }
%struct._address = type { i32, i32, ptr, ptr }
%struct._packet_info = type { ptr, ptr, i32, i32, %struct.nstime_t, %struct.nstime_t, %struct.nstime_t, i8, ptr, ptr, ptr, ptr, %struct._address, %struct._address, %struct._address, %struct._address, %struct._address, %struct._address, i32, ptr, i8, [3 x i8], %struct.anon, i32, i32, i32, i32, ptr, i8, ptr, ptr, i16, i16, i32, i32, i16, i32, i32, ptr, ptr, ptr, i8, i8, i16, i16, i16, i32, i16, i16, ptr, ptr, ptr, ptr, ptr, i32, i32 }
%struct.nstime_t = type { i64, i32 }
%struct.anon = type { i8, [3 x i8] }

@hf_dvbci_cup_type = internal global i32 0, align 4
@hf_dvbci_cup_download_time = internal global i32 0, align 4
@hf_dvbci_cup_answer = internal global i32 0, align 4
@hf_dvbci_cup_progress = internal global i32 0, align 4
@hf_dvbci_cup_reset = internal global i32 0, align 4
@ei_dvbci_cup_progress = internal global %struct.expert_field zeroinitializer, align 4
@dvbci_cup_type = internal constant [3 x { i32, [4 x i8], ptr }] [{ i32, [4 x i8], ptr } { i32 0, [4 x i8] zeroinitializer, ptr @.str.836 }, { i32, [4 x i8], ptr } { i32 1, [4 x i8] zeroinitializer, ptr @.str.837 }, { i32, [4 x i8], ptr } zeroinitializer], align 16
@.str.990 = private unnamed_addr constant [3 x i8] c": \00", align 1
@.str.1006 = private unnamed_addr constant [8 x i8] c"unknown\00", align 1
@.str.1020 = private unnamed_addr constant [2 x i8] c" \00", align 1
@.str.1022 = private unnamed_addr constant [5 x i8] c"(%s)\00", align 1
@.str.1023 = private unnamed_addr constant [35 x i8] c"estimated download time is unknown\00", align 1
@.str.1024 = private unnamed_addr constant [38 x i8] c"estimated download time is %d seconds\00", align 1
@.str.1025 = private unnamed_addr constant [5 x i8] c"%d%%\00", align 1
@.str.1026 = private unnamed_addr constant [23 x i8] c"download progress %d%%\00", align 1

; Function Attrs: null_pointer_is_valid sspstrong uwtable
define internal void @dissect_dvbci_payload_cup(i32 noundef %0, i32 noundef %1, ptr noundef %2, i32 noundef %3, ptr noundef %4, ptr noundef %5, ptr noundef %6) #0 {
  %8 = alloca i32, align 4
  %9 = alloca i32, align 4
  %10 = alloca ptr, align 8
  %11 = alloca i32, align 4
  %12 = alloca ptr, align 8
  %13 = alloca ptr, align 8
  %14 = alloca ptr, align 8
  %15 = alloca i8, align 1
  %16 = alloca i16, align 2
  %17 = alloca i8, align 1
  %18 = alloca i8, align 1
  store i32 %0, ptr %8, align 4
  store i32 %1, ptr %9, align 4
  store ptr %2, ptr %10, align 8
  store i32 %3, ptr %11, align 4
  store ptr %4, ptr %12, align 8
  store ptr %5, ptr %13, align 8
  store ptr %6, ptr %14, align 8
  call void @llvm.lifetime.start.p0(i64 1, ptr %15) #11
  call void @llvm.lifetime.start.p0(i64 2, ptr %16) #11
  call void @llvm.lifetime.start.p0(i64 1, ptr %17) #11
  call void @llvm.lifetime.start.p0(i64 1, ptr %18) #11
  %19 = load i32, ptr %8, align 4
  switch i32 %19, label %112 [
    i32 10460417, label %20
    i32 10460418, label %62
    i32 10460419, label %77
    i32 10460420, label %106
  ]

20:                                               ; preds = %7
  %21 = load ptr, ptr %10, align 8
  %22 = load i32, ptr %11, align 4
  %23 = call zeroext i8 @tvb_get_uint8(ptr noundef %21, i32 noundef %22)
  store i8 %23, ptr %15, align 1
  %24 = load ptr, ptr %14, align 8
  %25 = load i32, ptr @hf_dvbci_cup_type, align 4
  %26 = load ptr, ptr %10, align 8
  %27 = load i32, ptr %11, align 4
  %28 = call ptr @proto_tree_add_item(ptr noundef %24, i32 noundef %25, ptr noundef %26, i32 noundef %27, i32 noundef 1, i32 noundef 0)
  %29 = load ptr, ptr %13, align 8
  %30 = getelementptr inbounds nuw %struct._packet_info, ptr %29, i32 0, i32 1
  %31 = load ptr, ptr %30, align 8
  %32 = load i8, ptr %15, align 1
  %33 = zext i8 %32 to i32
  %34 = call ptr @val_to_str_const(i32 noundef %33, ptr noundef @dvbci_cup_type, ptr noundef @.str.1006)
  call void (ptr, i32, ptr, ptr, ...) @col_append_sep_fstr(ptr noundef %31, i32 noundef 25, ptr noundef @.str.1020, ptr noundef @.str.1022, ptr noundef %34)
  %35 = load i32, ptr %11, align 4
  %36 = add i32 %35, 1
  store i32 %36, ptr %11, align 4
  %37 = load ptr, ptr %10, align 8
  %38 = load i32, ptr %11, align 4
  %39 = call zeroext i16 @tvb_get_ntohs(ptr noundef %37, i32 noundef %38)
  store i16 %39, ptr %16, align 2
  %40 = load i16, ptr %16, align 2
  %41 = zext i16 %40 to i32
  %42 = icmp eq i32 %41, 0
  br i1 %42, label %43, label %51

43:                                               ; preds = %20
  %44 = load ptr, ptr %14, align 8
  %45 = load i32, ptr @hf_dvbci_cup_download_time, align 4
  %46 = load ptr, ptr %10, align 8
  %47 = load i32, ptr %11, align 4
  %48 = load i16, ptr %16, align 2
  %49 = zext i16 %48 to i32
  %50 = call ptr (ptr, i32, ptr, i32, i32, i32, ptr, ...) @proto_tree_add_uint_format(ptr noundef %44, i32 noundef %45, ptr noundef %46, i32 noundef %47, i32 noundef 2, i32 noundef %49, ptr noundef @.str.1023)
  br label %61

51:                                               ; preds = %20
  %52 = load ptr, ptr %14, align 8
  %53 = load i32, ptr @hf_dvbci_cup_download_time, align 4
  %54 = load ptr, ptr %10, align 8
  %55 = load i32, ptr %11, align 4
  %56 = load i16, ptr %16, align 2
  %57 = zext i16 %56 to i32
  %58 = load i16, ptr %16, align 2
  %59 = zext i16 %58 to i32
  %60 = call ptr (ptr, i32, ptr, i32, i32, i32, ptr, ...) @proto_tree_add_uint_format(ptr noundef %52, i32 noundef %53, ptr noundef %54, i32 noundef %55, i32 noundef 2, i32 noundef %57, ptr noundef @.str.1024, i32 noundef %59)
  br label %61

61:                                               ; preds = %51, %43
  br label %113

62:                                               ; preds = %7
  %63 = load ptr, ptr %10, align 8
  %64 = load i32, ptr %11, align 4
  %65 = call zeroext i8 @tvb_get_uint8(ptr noundef %63, i32 noundef %64)
  store i8 %65, ptr %17, align 1
  %66 = load ptr, ptr %14, align 8
  %67 = load i32, ptr @hf_dvbci_cup_answer, align 4
  %68 = load ptr, ptr %10, align 8
  %69 = load i32, ptr %11, align 4
  %70 = call ptr @proto_tree_add_item(ptr noundef %66, i32 noundef %67, ptr noundef %68, i32 noundef %69, i32 noundef 1, i32 noundef 0)
  %71 = load ptr, ptr %13, align 8
  %72 = getelementptr inbounds nuw %struct._packet_info, ptr %71, i32 0, i32 1
  %73 = load ptr, ptr %72, align 8
  %74 = load i8, ptr %17, align 1
  %75 = zext i8 %74 to i32
  %76 = call ptr @val_to_str_const(i32 noundef %75, ptr noundef @dvbci_cup_answer, ptr noundef @.str.1006)
  call void @col_append_sep_str(ptr noundef %73, i32 noundef 25, ptr noundef @.str.990, ptr noundef %76)
  br label %113

77:                                               ; preds = %7
  %78 = load ptr, ptr %10, align 8
  %79 = load i32, ptr %11, align 4
  %80 = call zeroext i8 @tvb_get_uint8(ptr noundef %78, i32 noundef %79)
  store i8 %80, ptr %18, align 1
  %81 = load i8, ptr %18, align 1
  %82 = zext i8 %81 to i32
  %83 = icmp sgt i32 %82, 100
  br i1 %83, label %84, label %90

84:                                               ; preds = %77
  %85 = load ptr, ptr %14, align 8
  %86 = load ptr, ptr %13, align 8
  %87 = load ptr, ptr %10, align 8
  %88 = load i32, ptr %11, align 4
  %89 = call ptr @proto_tree_add_expert(ptr noundef %85, ptr noundef %86, ptr noundef @ei_dvbci_cup_progress, ptr noundef %87, i32 noundef %88, i32 noundef 1)
  br label %105

90:                                               ; preds = %77
  %91 = load ptr, ptr %13, align 8
  %92 = getelementptr inbounds nuw %struct._packet_info, ptr %91, i32 0, i32 1
  %93 = load ptr, ptr %92, align 8
  %94 = load i8, ptr %18, align 1
  %95 = zext i8 %94 to i32
  call void (ptr, i32, ptr, ptr, ...) @col_append_sep_fstr(ptr noundef %93, i32 noundef 25, ptr noundef @.str.990, ptr noundef @.str.1025, i32 noundef %95)
  %96 = load ptr, ptr %14, align 8
  %97 = load i32, ptr @hf_dvbci_cup_progress, align 4
  %98 = load ptr, ptr %10, align 8
  %99 = load i32, ptr %11, align 4
  %100 = load i8, ptr %18, align 1
  %101 = zext i8 %100 to i32
  %102 = load i8, ptr %18, align 1
  %103 = zext i8 %102 to i32
  %104 = call ptr (ptr, i32, ptr, i32, i32, i32, ptr, ...) @proto_tree_add_uint_format(ptr noundef %96, i32 noundef %97, ptr noundef %98, i32 noundef %99, i32 noundef 1, i32 noundef %101, ptr noundef @.str.1026, i32 noundef %103)
  br label %105

105:                                              ; preds = %90, %84
  br label %113

106:                                              ; preds = %7
  %107 = load ptr, ptr %14, align 8
  %108 = load i32, ptr @hf_dvbci_cup_reset, align 4
  %109 = load ptr, ptr %10, align 8
  %110 = load i32, ptr %11, align 4
  %111 = call ptr @proto_tree_add_item(ptr noundef %107, i32 noundef %108, ptr noundef %109, i32 noundef %110, i32 noundef 1, i32 noundef 0)
  br label %113

112:                                              ; preds = %7
  br label %113

113:                                              ; preds = %112, %106, %105, %62, %61
  call void @llvm.lifetime.end.p0(i64 1, ptr %18) #11
  call void @llvm.lifetime.end.p0(i64 1, ptr %17) #11
  call void @llvm.lifetime.end.p0(i64 2, ptr %16) #11
  call void @llvm.lifetime.end.p0(i64 1, ptr %15) #11
  ret void
}