; Function Attrs: null_pointer_is_valid sspstrong uwtable
define internal void @dissect_dvbci_payload_cup(i32 noundef %0, i32 %1, ptr noundef %2, i32 noundef %3, ptr readnone captures(none) %4, ptr noundef %5, ptr noundef %6) #1 {
  switch i32 %0, label %48 [
    i32 10460417, label %8
    i32 10460418, label %26
    i32 10460419, label %34
    i32 10460420, label %45
  ]

8:                                                ; preds = %7
  %9 = tail call zeroext i8 @tvb_get_uint8(ptr noundef %2, i32 noundef %3)
  %10 = load i32, ptr @hf_dvbci_cup_type, align 4
  %11 = tail call ptr @proto_tree_add_item(ptr noundef %6, i32 noundef %10, ptr noundef %2, i32 noundef %3, i32 noundef 1, i32 noundef 0)
  %12 = getelementptr inbounds nuw i8, ptr %5, i64 8
  %13 = load ptr, ptr %12, align 8
  %14 = zext i8 %9 to i32
  %15 = tail call ptr @val_to_str_const(i32 noundef %14, ptr noundef nonnull @dvbci_cup_type, ptr noundef nonnull @.str.1006)
  tail call void (ptr, i32, ptr, ptr, ...) @col_append_sep_fstr(ptr noundef %13, i32 noundef 25, ptr noundef nonnull @.str.1020, ptr noundef nonnull @.str.1022, ptr noundef %15)
  %16 = add i32 %3, 1
  %17 = tail call zeroext i16 @tvb_get_ntohs(ptr noundef %2, i32 noundef %16)
  %18 = icmp eq i16 %17, 0
  br i1 %18, label %19, label %22

19:                                               ; preds = %8
  %20 = load i32, ptr @hf_dvbci_cup_download_time, align 4
  %21 = tail call ptr (ptr, i32, ptr, i32, i32, i32, ptr, ...) @proto_tree_add_uint_format(ptr noundef %6, i32 noundef %20, ptr noundef %2, i32 noundef %16, i32 noundef 2, i32 noundef 0, ptr noundef nonnull @.str.1023)
  br label %48

22:                                               ; preds = %8
  %23 = zext i16 %17 to i32
  %24 = load i32, ptr @hf_dvbci_cup_download_time, align 4
  %25 = tail call ptr (ptr, i32, ptr, i32, i32, i32, ptr, ...) @proto_tree_add_uint_format(ptr noundef %6, i32 noundef %24, ptr noundef %2, i32 noundef %16, i32 noundef 2, i32 noundef %23, ptr noundef nonnull @.str.1024, i32 noundef %23)
  br label %48

26:                                               ; preds = %7
  %27 = tail call zeroext i8 @tvb_get_uint8(ptr noundef %2, i32 noundef %3)
  %28 = load i32, ptr @hf_dvbci_cup_answer, align 4
  %29 = tail call ptr @proto_tree_add_item(ptr noundef %6, i32 noundef %28, ptr noundef %2, i32 noundef %3, i32 noundef 1, i32 noundef 0)
  %30 = getelementptr inbounds nuw i8, ptr %5, i64 8
  %31 = load ptr, ptr %30, align 8
  %32 = zext i8 %27 to i32
  %33 = tail call ptr @val_to_str_const(i32 noundef %32, ptr noundef nonnull @dvbci_cup_answer, ptr noundef nonnull @.str.1006)
  tail call void @col_append_sep_str(ptr noundef %31, i32 noundef 25, ptr noundef nonnull @.str.990, ptr noundef %33)
  br label %48

34:                                               ; preds = %7
  %35 = tail call zeroext i8 @tvb_get_uint8(ptr noundef %2, i32 noundef %3)
  %36 = icmp ugt i8 %35, 100
  br i1 %36, label %37, label %39

37:                                               ; preds = %34
  %38 = tail call ptr @proto_tree_add_expert(ptr noundef %6, ptr noundef %5, ptr noundef nonnull @ei_dvbci_cup_progress, ptr noundef %2, i32 noundef %3, i32 noundef 1)
  br label %48

39:                                               ; preds = %34
  %40 = zext nneg i8 %35 to i32
  %41 = getelementptr inbounds nuw i8, ptr %5, i64 8
  %42 = load ptr, ptr %41, align 8
  tail call void (ptr, i32, ptr, ptr, ...) @col_append_sep_fstr(ptr noundef %42, i32 noundef 25, ptr noundef nonnull @.str.990, ptr noundef nonnull @.str.1025, i32 noundef %40)
  %43 = load i32, ptr @hf_dvbci_cup_progress, align 4
  %44 = tail call ptr (ptr, i32, ptr, i32, i32, i32, ptr, ...) @proto_tree_add_uint_format(ptr noundef %6, i32 noundef %43, ptr noundef %2, i32 noundef %3, i32 noundef 1, i32 noundef %40, ptr noundef nonnull @.str.1026, i32 noundef %40)
  br label %48

45:                                               ; preds = %7
  %46 = load i32, ptr @hf_dvbci_cup_reset, align 4
  %47 = tail call ptr @proto_tree_add_item(ptr noundef %6, i32 noundef %46, ptr noundef %2, i32 noundef %3, i32 noundef 1, i32 noundef 0)
  br label %48

48:                                               ; preds = %7, %37, %39, %19, %22, %45, %26
  ret void
}